ccopy_reg
_reconstructor
p0
(csklearn.feature_extraction.dict_vectorizer
DictVectorizer
p1
c__builtin__
object
p2
Ntp3
Rp4
(dp5
S'sort'
p6
I01
sS'feature_names_'
p7
(lp8
S'distance_from_title'
p9
aS'isdate_mon'
p10
aS'isday'
p11
aS'ismonth'
p12
aS'isyear'
p13
aS'regexp'
p14
asS'dtype'
p15
cnumpy
float64
p16
sS'vocabulary_'
p17
(dp18
g11
I2
sg12
I3
sg9
I0
sg13
I4
sg14
I5
sg10
I1
ssS'separator'
p19
S'='
p20
sS'sparse'
p21
I00
sb.