ccopy_reg
_reconstructor
p0
(csklearn.feature_extraction.dict_vectorizer
DictVectorizer
p1
c__builtin__
object
p2
Ntp3
Rp4
(dp5
S'sort'
p6
I01
sS'feature_names_'
p7
(lp8
S'isbestTitle'
p9
aS'isheading'
p10
asS'dtype'
p11
cnumpy
float64
p12
sS'vocabulary_'
p13
(dp14
g9
I0
sg10
I1
ssS'separator'
p15
S'='
p16
sS'sparse'
p17
I00
sb.